target datalayout = "e-m:e-p270:32:32-p271:32:32-p272:64:64-i64:64-i128:128-f80:128-n8:16:32:64-S128"
target triple = "x86_64-pc-linux-gnu"

%"class.gmx::ArrayRef.67" = type { %"struct.gmx::ArrayRefIter.68", %"struct.gmx::ArrayRefIter.68" }
%"struct.gmx::ArrayRefIter.68" = type { ptr }

@.str.153 = private unnamed_addr constant [2 x i8] c"_\00", align 1

; Function Attrs: mustprogress nounwind uwtable
define linkonce_odr noundef nonnull align 8 dereferenceable(8) ptr @_ZNK3gmx12ArrayRefIterIPcEdeEv(ptr noundef nonnull align 8 dereferenceable(8) %0) #4 comdat align 2 {
  %2 = alloca ptr, align 8
  store ptr %0, ptr %2, align 8, !tbaa !302
  %3 = load ptr, ptr %2, align 8
  %4 = getelementptr inbounds nuw %"struct.gmx::ArrayRefIter.68", ptr %3, i32 0, i32 0
  %5 = load ptr, ptr %4, align 8, !tbaa !304
  ret ptr %5
}

; Function Attrs: mustprogress nounwind uwtable
define linkonce_odr noundef nonnull align 8 dereferenceable(8) ptr @_ZN3gmx12ArrayRefIterIPcEpLEl(ptr noundef nonnull align 8 dereferenceable(8) %0, i64 noundef %1) #4 comdat align 2 {
  %3 = alloca ptr, align 8
  %4 = alloca i64, align 8
  store ptr %0, ptr %3, align 8, !tbaa !302
  store i64 %1, ptr %4, align 8, !tbaa !62
  %5 = load ptr, ptr %3, align 8
  %6 = load i64, ptr %4, align 8, !tbaa !62
  %7 = getelementptr inbounds nuw %"struct.gmx::ArrayRefIter.68", ptr %5, i32 0, i32 0
  %8 = load ptr, ptr %7, align 8, !tbaa !304
  %9 = getelementptr inbounds ptr, ptr %8, i64 %6
  store ptr %9, ptr %7, align 8, !tbaa !304
  ret ptr %5
}

; Function Attrs: mustprogress nounwind uwtable
define linkonce_odr noundef nonnull align 8 dereferenceable(8) ptr @_ZNK3gmx5boost14stl_interfaces2v118iterator_interfaceINS_12ArrayRefIterIPcEESt26random_access_iterator_tagS5_RS5_PS5_lvE7derivedEv(ptr noundef nonnull align 1 dereferenceable(1) %0) #4 comdat align 2 {
  %2 = alloca ptr, align 8
  store ptr %0, ptr %2, align 8, !tbaa !307
  %3 = load ptr, ptr %2, align 8
  ret ptr %3
}

; Function Attrs: mustprogress nounwind uwtable
define linkonce_odr noundef nonnull align 8 dereferenceable(8) ptr @_ZNK3gmx5boost14stl_interfaces2v118iterator_interfaceINS_12ArrayRefIterIPcEESt26random_access_iterator_tagS5_RS5_PS5_lvEixIS6_EEDTcmpLclsr3stdE7declvalIRT_EEfp_declsr3stdE7declvalISD_EEEl(ptr noundef nonnull align 1 dereferenceable(1) %0, i64 noundef %1) #4 comdat align 2 {
  %3 = alloca ptr, align 8
  %4 = alloca i64, align 8
  %5 = alloca %"struct.gmx::ArrayRefIter.68", align 8
  store ptr %0, ptr %3, align 8, !tbaa !307
  store i64 %1, ptr %4, align 8, !tbaa !62
  %6 = load ptr, ptr %3, align 8
  call void @llvm.lifetime.start.p0(i64 8, ptr %5) #19
  %7 = call noundef nonnull align 8 dereferenceable(8) ptr @_ZNK3gmx5boost14stl_interfaces2v118iterator_interfaceINS_12ArrayRefIterIPcEESt26random_access_iterator_tagS5_RS5_PS5_lvE7derivedEv(ptr noundef nonnull align 1 dereferenceable(1) %6) #19
  call void @llvm.memcpy.p0.p0.i64(ptr align 8 %5, ptr align 8 %7, i64 8, i1 false)
  %8 = load i64, ptr %4, align 8, !tbaa !62
  %9 = call noundef nonnull align 8 dereferenceable(8) ptr @_ZN3gmx12ArrayRefIterIPcEpLEl(ptr noundef nonnull align 8 dereferenceable(8) %5, i64 noundef %8) #19
  %10 = call noundef nonnull align 8 dereferenceable(8) ptr @_ZNK3gmx12ArrayRefIterIPcEdeEv(ptr noundef nonnull align 8 dereferenceable(8) %5) #19
  call void @llvm.lifetime.end.p0(i64 8, ptr %5) #19
  ret ptr %10
}

; Function Attrs: mustprogress nounwind uwtable
define linkonce_odr noundef nonnull align 8 dereferenceable(8) ptr @_ZNK3gmx8ArrayRefIPcEixEm(ptr noundef nonnull align 8 dereferenceable(16) %0, i64 noundef %1) #4 comdat align 2 {
  %3 = alloca ptr, align 8
  %4 = alloca i64, align 8
  store ptr %0, ptr %3, align 8, !tbaa !253
  store i64 %1, ptr %4, align 8, !tbaa !62
  %5 = load ptr, ptr %3, align 8
  %6 = getelementptr inbounds nuw %"class.gmx::ArrayRef.67", ptr %5, i32 0, i32 0
  %7 = load i64, ptr %4, align 8, !tbaa !62
  %8 = call noundef nonnull align 8 dereferenceable(8) ptr @_ZNK3gmx5boost14stl_interfaces2v118iterator_interfaceINS_12ArrayRefIterIPcEESt26random_access_iterator_tagS5_RS5_PS5_lvEixIS6_EEDTcmpLclsr3stdE7declvalIRT_EEfp_declsr3stdE7declvalISD_EEEl(ptr noundef nonnull align 1 dereferenceable(1) %6, i64 noundef %7) #19
  ret ptr %8
}

; Function Attrs: mustprogress uwtable
define internal void @_ZL10make_gnameiN3gmx8ArrayRefIPcEES1_(i32 noundef %0, ptr %1, ptr %2, ptr noundef %3) #0 {
  %5 = alloca %"class.gmx::ArrayRef.67", align 8
  %6 = alloca i32, align 4
  %7 = alloca ptr, align 8
  %8 = alloca i32, align 4
  %9 = getelementptr inbounds nuw { ptr, ptr }, ptr %5, i32 0, i32 0
  store ptr %1, ptr %9, align 8
  %10 = getelementptr inbounds nuw { ptr, ptr }, ptr %5, i32 0, i32 1
  store ptr %2, ptr %10, align 8
  store i32 %0, ptr %6, align 4, !tbaa !4
  store ptr %3, ptr %7, align 8, !tbaa !24
  call void @llvm.lifetime.start.p0(i64 4, ptr %8) #19
  %11 = load ptr, ptr %7, align 8, !tbaa !24
  %12 = call noundef nonnull align 8 dereferenceable(8) ptr @_ZNK3gmx8ArrayRefIPcEixEm(ptr noundef nonnull align 8 dereferenceable(16) %5, i64 noundef 0)
  %13 = load ptr, ptr %12, align 8, !tbaa !24
  %14 = call ptr @strcpy(ptr noundef %11, ptr noundef %13) #19
  store i32 1, ptr %8, align 4, !tbaa !4
  br label %15

15:                                               ; preds = %28, %4
  %16 = load i32, ptr %8, align 4, !tbaa !4
  %17 = load i32, ptr %6, align 4, !tbaa !4
  %18 = icmp slt i32 %16, %17
  br i1 %18, label %19, label %31

19:                                               ; preds = %15
  %20 = load ptr, ptr %7, align 8, !tbaa !24
  %21 = call ptr @strcat(ptr noundef %20, ptr noundef @.str.153) #19
  %22 = load ptr, ptr %7, align 8, !tbaa !24
  %23 = load i32, ptr %8, align 4, !tbaa !4
  %24 = sext i32 %23 to i64
  %25 = call noundef nonnull align 8 dereferenceable(8) ptr @_ZNK3gmx8ArrayRefIPcEixEm(ptr noundef nonnull align 8 dereferenceable(16) %5, i64 noundef %24)
  %26 = load ptr, ptr %25, align 8, !tbaa !24
  %27 = call ptr @strcat(ptr noundef %22, ptr noundef %26) #19
  br label %28

28:                                               ; preds = %19
  %29 = load i32, ptr %8, align 4, !tbaa !4
  %30 = add nsw i32 %29, 1
  store i32 %30, ptr %8, align 4, !tbaa !4
  br label %15, !llvm.loop !281

31:                                               ; preds = %15
  call void @llvm.lifetime.end.p0(i64 4, ptr %8) #19
  ret void
}