; Function Attrs: mustprogress nofree nounwind memory(readwrite, inaccessiblemem: none) uwtable
define internal fastcc void @_ZL10make_gnameiN3gmx8ArrayRefIPcEES1_(i32 noundef %0, ptr readonly captures(none) %1, ptr noundef nonnull %2) unnamed_addr #21 {
  %4 = load ptr, ptr %1, align 8, !tbaa !21
  %5 = tail call ptr @strcpy(ptr noundef nonnull dereferenceable(1) %2, ptr noundef nonnull dereferenceable(1) %4) #27
  %6 = icmp sgt i32 %0, 1
  br i1 %6, label %.lr.ph.preheader, label %._crit_edge

.lr.ph.preheader:                                 ; preds = %3
  %wide.trip.count = zext nneg i32 %0 to i64
  br label %.lr.ph

.lr.ph:                                           ; preds = %.lr.ph.preheader, %.lr.ph
  %indvars.iv = phi i64 [ 1, %.lr.ph.preheader ], [ %indvars.iv.next, %.lr.ph ]
  %strlen = tail call i64 @strlen(ptr nonnull dereferenceable(1) %2)
  %endptr = getelementptr inbounds i8, ptr %2, i64 %strlen
  store i16 95, ptr %endptr, align 1
  %7 = getelementptr inbounds nuw ptr, ptr %1, i64 %indvars.iv
  %8 = load ptr, ptr %7, align 8, !tbaa !21
  %9 = tail call ptr @strcat(ptr noundef nonnull dereferenceable(1) %2, ptr noundef nonnull dereferenceable(1) %8) #27
  %indvars.iv.next = add nuw nsw i64 %indvars.iv, 1
  %exitcond.not = icmp eq i64 %indvars.iv.next, %wide.trip.count
  br i1 %exitcond.not, label %._crit_edge, label %.lr.ph, !llvm.loop !127

._crit_edge:                                      ; preds = %.lr.ph, %3
  ret void
}